; Function Attrs: mustprogress nounwind uwtable
define noundef zeroext i1 @_ZN7mitsuba10filesystem6removeERKNS0_4pathE(ptr nocapture noundef nonnull readonly align 8 dereferenceable(25) %0) local_unnamed_addr #5 personality ptr @__gxx_personality_v0 {
  %2 = alloca %"class.std::__1::basic_string", align 8
  invoke void @_ZNK7mitsuba10filesystem4path3strEv(ptr dead_on_unwind nonnull writable sret(%"class.std::__1::basic_string") align 8 %2, ptr noundef nonnull align 8 dereferenceable(25) %0)
          to label %_ZNK7mitsuba10filesystem4path6nativeEv.exit unwind label %3

3:                                                ; preds = %1
  %4 = landingpad { ptr, i32 }
          catch ptr null
  %5 = extractvalue { ptr, i32 } %4, 0
  call void @__clang_call_terminate(ptr %5) #19
  unreachable

_ZNK7mitsuba10filesystem4path6nativeEv.exit:      ; preds = %1
  %6 = load i8, ptr %2, align 8
  %7 = and i8 %6, 1
  %.not.i.i.i = icmp eq i8 %7, 0
  %8 = getelementptr inbounds i8, ptr %2, i64 16
  %9 = load ptr, ptr %8, align 8
  %10 = getelementptr inbounds i8, ptr %2, i64 1
  %11 = select i1 %.not.i.i.i, ptr %10, ptr %9
  %12 = call i32 @remove(ptr noundef %11) #16
  %13 = icmp eq i32 %12, 0
  call void @_ZNSt3__112basic_stringIcNS_11char_traitsIcEENS_9allocatorIcEEED1Ev(ptr noundef nonnull align 8 dereferenceable(24) %2) #16
  ret i1 %13
}